target datalayout = "e-m:e-p270:32:32-p271:32:32-p272:64:64-i64:64-i128:128-f80:128-n8:16:32:64-S128"
target triple = "x86_64-pc-linux-gnu"

%struct.FormData_pg_replication_origin = type { i32, %struct.varlena }
%struct.varlena = type { [4 x i8], [0 x i8] }
%struct.HeapTupleData = type { i32, %struct.ItemPointerData, i32, ptr }
%struct.ItemPointerData = type { %struct.BlockIdData, i16 }
%struct.BlockIdData = type { i16, i16 }
%struct.HeapTupleHeaderData = type { %union.anon, %struct.ItemPointerData, i16, i16, i8, [0 x i8] }
%union.anon = type { %struct.HeapTupleFields }
%struct.HeapTupleFields = type { i32, i32, %union.anon.0 }
%union.anon.0 = type { i32 }
%struct.FunctionCallInfoBaseData = type { ptr, ptr, ptr, i32, i8, i16, [0 x %struct.NullableDatum] }
%struct.NullableDatum = type { i64, i8 }

@.str = private unnamed_addr constant [39 x i8] c"replication origin \22%s\22 does not exist\00", align 1
@.str.1 = private unnamed_addr constant [9 x i8] c"origin.c\00", align 1
@__func__.replorigin_by_name = private unnamed_addr constant [19 x i8] c"replorigin_by_name\00", align 1
@max_replication_slots = external global i32, align 4
@.str.32 = private unnamed_addr constant [80 x i8] c"cannot query or manipulate replication origin when \22max_replication_slots\22 is 0\00", align 1
@__func__.replorigin_check_prerequisites = private unnamed_addr constant [31 x i8] c"replorigin_check_prerequisites\00", align 1
@.str.33 = private unnamed_addr constant [54 x i8] c"cannot manipulate replication origins during recovery\00", align 1

; Function Attrs: inlinehint nounwind uwtable
define internal ptr @GETSTRUCT(ptr noundef %0) #2 {
  %2 = alloca ptr, align 8
  store ptr %0, ptr %2, align 8
  %3 = load ptr, ptr %2, align 8
  %4 = getelementptr inbounds nuw %struct.HeapTupleData, ptr %3, i32 0, i32 3
  %5 = load ptr, ptr %4, align 8
  %6 = load ptr, ptr %2, align 8
  %7 = getelementptr inbounds nuw %struct.HeapTupleData, ptr %6, i32 0, i32 3
  %8 = load ptr, ptr %7, align 8
  %9 = getelementptr inbounds nuw %struct.HeapTupleHeaderData, ptr %8, i32 0, i32 4
  %10 = load i8, ptr %9, align 2
  %11 = zext i8 %10 to i32
  %12 = sext i32 %11 to i64
  %13 = getelementptr inbounds i8, ptr %5, i64 %12
  ret ptr %13
}

; Function Attrs: inlinehint nounwind uwtable
define internal i64 @PointerGetDatum(ptr noundef %0) #2 {
  %2 = alloca ptr, align 8
  store ptr %0, ptr %2, align 8
  %3 = load ptr, ptr %2, align 8
  %4 = ptrtoint ptr %3 to i64
  ret i64 %4
}

; Function Attrs: inlinehint nounwind uwtable
define internal i64 @ObjectIdGetDatum(i32 noundef %0) #2 {
  %2 = alloca i32, align 4
  store i32 %0, ptr %2, align 4
  %3 = load i32, ptr %2, align 4
  %4 = zext i32 %3 to i64
  ret i64 %4
}

; Function Attrs: nounwind uwtable
define dso_local zeroext i16 @replorigin_by_name(ptr noundef %0, i1 noundef zeroext %1) #0 {
  %3 = alloca ptr, align 8
  %4 = alloca i8, align 1
  %5 = alloca ptr, align 8
  %6 = alloca i32, align 4
  %7 = alloca ptr, align 8
  %8 = alloca i64, align 8
  store ptr %0, ptr %3, align 8
  %9 = zext i1 %1 to i8
  store i8 %9, ptr %4, align 1
  call void @llvm.lifetime.start.p0(i64 8, ptr %5) #9
  call void @llvm.lifetime.start.p0(i64 4, ptr %6) #9
  store i32 0, ptr %6, align 4
  call void @llvm.lifetime.start.p0(i64 8, ptr %7) #9
  call void @llvm.lifetime.start.p0(i64 8, ptr %8) #9
  %10 = load ptr, ptr %3, align 8
  %11 = call ptr @cstring_to_text(ptr noundef %10)
  %12 = call i64 @PointerGetDatum(ptr noundef %11)
  store i64 %12, ptr %8, align 8
  %13 = load i64, ptr %8, align 8
  %14 = call ptr @SearchSysCache1(i32 noundef 59, i64 noundef %13)
  store ptr %14, ptr %7, align 8
  %15 = load ptr, ptr %7, align 8
  %16 = icmp ne ptr %15, null
  br i1 %16, label %17, label %24

17:                                               ; preds = %2
  %18 = load ptr, ptr %7, align 8
  %19 = call ptr @GETSTRUCT(ptr noundef %18)
  store ptr %19, ptr %5, align 8
  %20 = load ptr, ptr %5, align 8
  %21 = getelementptr inbounds nuw %struct.FormData_pg_replication_origin, ptr %20, i32 0, i32 0
  %22 = load i32, ptr %21, align 4
  store i32 %22, ptr %6, align 4
  %23 = load ptr, ptr %7, align 8
  call void @ReleaseSysCache(ptr noundef %23)
  br label %41

24:                                               ; preds = %2
  %25 = load i8, ptr %4, align 1, !range !4, !noundef !5
  %26 = trunc i8 %25 to i1
  br i1 %26, label %40, label %27

27:                                               ; preds = %24
  br label %28

28:                                               ; preds = %27
  br i1 true, label %29, label %31

29:                                               ; preds = %28
  %30 = call zeroext i1 @errstart_cold(i32 noundef 21, ptr noundef null) #10
  br i1 %30, label %33, label %37

31:                                               ; preds = %28
  %32 = call zeroext i1 @errstart(i32 noundef 21, ptr noundef null)
  br i1 %32, label %33, label %37

33:                                               ; preds = %31, %29
  %34 = call i32 @errcode(i32 noundef 67137668)
  %35 = load ptr, ptr %3, align 8
  %36 = call i32 (ptr, ...) @errmsg(ptr noundef @.str, ptr noundef %35)
  call void @errfinish(ptr noundef @.str.1, i32 noundef 245, ptr noundef @__func__.replorigin_by_name)
  br label %37

37:                                               ; preds = %33, %31, %29
  unreachable

38:                                               ; No predecessors!
  br label %39

39:                                               ; preds = %38
  br label %40

40:                                               ; preds = %39, %24
  br label %41

41:                                               ; preds = %40, %17
  %42 = load i32, ptr %6, align 4
  %43 = trunc i32 %42 to i16
  call void @llvm.lifetime.end.p0(i64 8, ptr %8) #9
  call void @llvm.lifetime.end.p0(i64 8, ptr %7) #9
  call void @llvm.lifetime.end.p0(i64 4, ptr %6) #9
  call void @llvm.lifetime.end.p0(i64 8, ptr %5) #9
  ret i16 %43
}

; Function Attrs: inlinehint nounwind uwtable
define internal ptr @DatumGetPointer(i64 noundef %0) #2 {
  %2 = alloca i64, align 8
  store i64 %0, ptr %2, align 8
  %3 = load i64, ptr %2, align 8
  %4 = inttoptr i64 %3 to ptr
  ret ptr %4
}

; Function Attrs: nounwind uwtable
define internal void @replorigin_check_prerequisites(i1 noundef zeroext %0, i1 noundef zeroext %1) #0 {
  %3 = alloca i8, align 1
  %4 = alloca i8, align 1
  %5 = zext i1 %0 to i8
  store i8 %5, ptr %3, align 1
  %6 = zext i1 %1 to i8
  store i8 %6, ptr %4, align 1
  %7 = load i8, ptr %3, align 1, !range !4, !noundef !5
  %8 = trunc i8 %7 to i1
  br i1 %8, label %9, label %23

9:                                                ; preds = %2
  %10 = load i32, ptr @max_replication_slots, align 4
  %11 = icmp eq i32 %10, 0
  br i1 %11, label %12, label %23

12:                                               ; preds = %9
  br label %13

13:                                               ; preds = %12
  br i1 true, label %14, label %16

14:                                               ; preds = %13
  %15 = call zeroext i1 @errstart_cold(i32 noundef 21, ptr noundef null) #10
  br i1 %15, label %18, label %21

16:                                               ; preds = %13
  %17 = call zeroext i1 @errstart(i32 noundef 21, ptr noundef null)
  br i1 %17, label %18, label %21

18:                                               ; preds = %16, %14
  %19 = call i32 @errcode(i32 noundef 325)
  %20 = call i32 (ptr, ...) @errmsg(ptr noundef @.str.32)
  call void @errfinish(ptr noundef @.str.1, i32 noundef 194, ptr noundef @__func__.replorigin_check_prerequisites)
  br label %21

21:                                               ; preds = %18, %16, %14
  unreachable

22:                                               ; No predecessors!
  br label %23

23:                                               ; preds = %22, %9, %2
  %24 = load i8, ptr %4, align 1, !range !4, !noundef !5
  %25 = trunc i8 %24 to i1
  br i1 %25, label %39, label %26

26:                                               ; preds = %23
  %27 = call zeroext i1 @RecoveryInProgress()
  br i1 %27, label %28, label %39

28:                                               ; preds = %26
  br label %29

29:                                               ; preds = %28
  br i1 true, label %30, label %32

30:                                               ; preds = %29
  %31 = call zeroext i1 @errstart_cold(i32 noundef 21, ptr noundef null) #10
  br i1 %31, label %34, label %37

32:                                               ; preds = %29
  %33 = call zeroext i1 @errstart(i32 noundef 21, ptr noundef null)
  br i1 %33, label %34, label %37

34:                                               ; preds = %32, %30
  %35 = call i32 @errcode(i32 noundef 100663618)
  %36 = call i32 (ptr, ...) @errmsg(ptr noundef @.str.33)
  call void @errfinish(ptr noundef @.str.1, i32 noundef 199, ptr noundef @__func__.replorigin_check_prerequisites)
  br label %37

37:                                               ; preds = %34, %32, %30
  unreachable

38:                                               ; No predecessors!
  br label %39

39:                                               ; preds = %38, %26, %23
  ret void
}

; Function Attrs: nounwind uwtable
define dso_local i64 @pg_replication_origin_oid(ptr noundef %0) #0 {
  %2 = alloca i64, align 8
  %3 = alloca ptr, align 8
  %4 = alloca ptr, align 8
  %5 = alloca i16, align 2
  %6 = alloca i32, align 4
  store ptr %0, ptr %3, align 8
  call void @llvm.lifetime.start.p0(i64 8, ptr %4) #9
  call void @llvm.lifetime.start.p0(i64 2, ptr %5) #9
  call void @replorigin_check_prerequisites(i1 noundef zeroext false, i1 noundef zeroext false)
  %7 = load ptr, ptr %3, align 8
  %8 = getelementptr inbounds nuw %struct.FunctionCallInfoBaseData, ptr %7, i32 0, i32 6
  %9 = getelementptr inbounds [0 x %struct.NullableDatum], ptr %8, i64 0, i64 0
  %10 = getelementptr inbounds nuw %struct.NullableDatum, ptr %9, i32 0, i32 0
  %11 = load i64, ptr %10, align 8
  %12 = call ptr @DatumGetPointer(i64 noundef %11)
  %13 = call ptr @text_to_cstring(ptr noundef %12)
  store ptr %13, ptr %4, align 8
  %14 = load ptr, ptr %4, align 8
  %15 = call zeroext i16 @replorigin_by_name(ptr noundef %14, i1 noundef zeroext true)
  store i16 %15, ptr %5, align 2
  %16 = load ptr, ptr %4, align 8
  call void @pfree(ptr noundef %16)
  %17 = load i16, ptr %5, align 2
  %18 = zext i16 %17 to i32
  %19 = icmp ne i32 %18, 0
  br i1 %19, label %20, label %24

20:                                               ; preds = %1
  %21 = load i16, ptr %5, align 2
  %22 = zext i16 %21 to i32
  %23 = call i64 @ObjectIdGetDatum(i32 noundef %22)
  store i64 %23, ptr %2, align 8
  store i32 1, ptr %6, align 4
  br label %30

24:                                               ; preds = %1
  br label %25

25:                                               ; preds = %24
  %26 = load ptr, ptr %3, align 8
  %27 = getelementptr inbounds nuw %struct.FunctionCallInfoBaseData, ptr %26, i32 0, i32 4
  store i8 1, ptr %27, align 4
  store i64 0, ptr %2, align 8
  store i32 1, ptr %6, align 4
  br label %30

28:                                               ; No predecessors!
  br label %29

29:                                               ; preds = %28
  store i32 0, ptr %6, align 4
  br label %30

30:                                               ; preds = %29, %25, %20
  call void @llvm.lifetime.end.p0(i64 2, ptr %5) #9
  call void @llvm.lifetime.end.p0(i64 8, ptr %4) #9
  %31 = load i32, ptr %6, align 4
  switch i32 %31, label %34 [
    i32 0, label %32
    i32 1, label %32
  ]

32:                                               ; preds = %30, %30
  %33 = load i64, ptr %2, align 8
  ret i64 %33

34:                                               ; preds = %30
  unreachable
}