; Function Attrs: nounwind uwtable
define dso_local range(i64 0, 65536) i64 @pg_replication_origin_oid(ptr noundef captures(none) %0) local_unnamed_addr #0 {
  %2 = tail call zeroext i1 @RecoveryInProgress() #10
  br i1 %2, label %3, label %replorigin_check_prerequisites.exit

3:                                                ; preds = %1
  %4 = tail call zeroext i1 @errstart_cold(i32 noundef 21, ptr noundef null) #11
  tail call void @llvm.assume(i1 %4)
  %5 = tail call i32 @errcode(i32 noundef 100663618) #10
  %6 = tail call i32 (ptr, ...) @errmsg(ptr noundef nonnull @.str.33) #10
  tail call void @errfinish(ptr noundef nonnull @.str.1, i32 noundef 199, ptr noundef nonnull @__func__.replorigin_check_prerequisites) #10
  unreachable

replorigin_check_prerequisites.exit:              ; preds = %1
  %7 = getelementptr inbounds nuw i8, ptr %0, i64 32
  %8 = load i64, ptr %7, align 8
  %9 = inttoptr i64 %8 to ptr
  %10 = tail call ptr @text_to_cstring(ptr noundef %9) #10
  %11 = tail call ptr @cstring_to_text(ptr noundef %10) #10
  %12 = ptrtoint ptr %11 to i64
  %13 = tail call ptr @SearchSysCache1(i32 noundef 59, i64 noundef %12) #10
  %.not.i = icmp eq ptr %13, null
  br i1 %.not.i, label %replorigin_by_name.exit.thread, label %replorigin_by_name.exit

replorigin_by_name.exit.thread:                   ; preds = %replorigin_check_prerequisites.exit
  tail call void @pfree(ptr noundef %10) #10
  br label %23

replorigin_by_name.exit:                          ; preds = %replorigin_check_prerequisites.exit
  %14 = getelementptr i8, ptr %13, i64 16
  %.val.i = load ptr, ptr %14, align 8
  %15 = getelementptr inbounds nuw i8, ptr %.val.i, i64 22
  %16 = load i8, ptr %15, align 2
  %17 = zext i8 %16 to i64
  %18 = getelementptr inbounds nuw i8, ptr %.val.i, i64 %17
  %19 = load i32, ptr %18, align 4
  tail call void @ReleaseSysCache(ptr noundef nonnull %13) #10
  tail call void @pfree(ptr noundef %10) #10
  %20 = and i32 %19, 65535
  %.not = icmp eq i32 %20, 0
  br i1 %.not, label %23, label %21

21:                                               ; preds = %replorigin_by_name.exit
  %22 = zext nneg i32 %20 to i64
  br label %25

23:                                               ; preds = %replorigin_by_name.exit.thread, %replorigin_by_name.exit
  %24 = getelementptr inbounds nuw i8, ptr %0, i64 28
  store i8 1, ptr %24, align 4
  br label %25

25:                                               ; preds = %23, %21
  %.0 = phi i64 [ %22, %21 ], [ 0, %23 ]
  ret i64 %.0
}